target datalayout = "e-m:e-p270:32:32-p271:32:32-p272:64:64-i64:64-i128:128-f80:128-n8:16:32:64-S128"
target triple = "x86_64-unknown-linux-gnu"

%"class.boost::detail::shared_count" = type { ptr }
%"class.QuantLib::DayCounter" = type { %"class.boost::shared_ptr.6" }
%"class.boost::shared_ptr.6" = type { ptr, %"class.boost::detail::shared_count" }
%"class.QuantLib::InterestRate" = type { double, %"class.QuantLib::DayCounter", i32, i8, double }

; Function Attrs: mustprogress uwtable
define void @_ZNK8QuantLib18YieldTermStructure8zeroRateEdNS_11CompoundingENS_9FrequencyEb(ptr dead_on_unwind noalias writable sret(%"class.QuantLib::InterestRate") align 8 %agg.result, ptr noundef nonnull align 8 dereferenceable(152) %this, double noundef %t, i32 noundef %comp, i32 noundef %freq, i1 noundef zeroext %extrapolate) #2 align 2 personality ptr @__gxx_personality_v0 {
entry:
  %result.ptr = alloca ptr, align 8
  %this.addr = alloca ptr, align 8
  %t.addr = alloca double, align 8
  %comp.addr = alloca i32, align 4
  %freq.addr = alloca i32, align 4
  %extrapolate.addr = alloca i8, align 1
  %compound = alloca double, align 8
  %ref.tmp = alloca %"class.QuantLib::DayCounter", align 8
  %exn.slot = alloca ptr, align 8
  %ehselector.slot = alloca i32, align 4
  store ptr %agg.result, ptr %result.ptr, align 8
  store ptr %this, ptr %this.addr, align 8, !tbaa !3
  store double %t, ptr %t.addr, align 8, !tbaa !48
  store i32 %comp, ptr %comp.addr, align 4, !tbaa !58
  store i32 %freq, ptr %freq.addr, align 4, !tbaa !60
  %storedv = zext i1 %extrapolate to i8
  store i8 %storedv, ptr %extrapolate.addr, align 1, !tbaa !51
  %this1 = load ptr, ptr %this.addr, align 8
  %0 = load double, ptr %t.addr, align 8, !tbaa !48
  %cmp = fcmp oeq double %0, 0.000000e+00
  br i1 %cmp, label %if.then, label %if.end

if.then:                                          ; preds = %entry
  store double 1.000000e-04, ptr %t.addr, align 8, !tbaa !48
  br label %if.end

if.end:                                           ; preds = %if.then, %entry
  call void @llvm.lifetime.start.p0(i64 8, ptr %compound) #20
  %1 = load double, ptr %t.addr, align 8, !tbaa !48
  %2 = load i8, ptr %extrapolate.addr, align 1, !tbaa !51, !range !53, !noundef !54
  %loadedv = trunc i8 %2 to i1
  %call = call noundef double @_ZNK8QuantLib18YieldTermStructure8discountEdb(ptr noundef nonnull align 8 dereferenceable(152) %this1, double noundef %1, i1 noundef zeroext %loadedv)
  %div = fdiv double 1.000000e+00, %call
  store double %div, ptr %compound, align 8, !tbaa !48
  %3 = load double, ptr %compound, align 8, !tbaa !48
  call void @llvm.lifetime.start.p0(i64 16, ptr %ref.tmp) #20
  %vtable = load ptr, ptr %this1, align 8, !tbaa !10
  %vfn = getelementptr inbounds ptr, ptr %vtable, i64 2
  %4 = load ptr, ptr %vfn, align 8
  call void %4(ptr dead_on_unwind writable sret(%"class.QuantLib::DayCounter") align 8 %ref.tmp, ptr noundef nonnull align 8 dereferenceable(64) %this1)
  %5 = load i32, ptr %comp.addr, align 4, !tbaa !58
  %6 = load i32, ptr %freq.addr, align 4, !tbaa !60
  %7 = load double, ptr %t.addr, align 8, !tbaa !48
  invoke void @_ZN8QuantLib12InterestRate11impliedRateEdRKNS_10DayCounterENS_11CompoundingENS_9FrequencyEd(ptr dead_on_unwind writable sret(%"class.QuantLib::InterestRate") align 8 %agg.result, double noundef %3, ptr noundef nonnull align 8 dereferenceable(16) %ref.tmp, i32 noundef %5, i32 noundef %6, double noundef %7)
          to label %invoke.cont unwind label %lpad

invoke.cont:                                      ; preds = %if.end
  call void @_ZN8QuantLib10DayCounterD2Ev(ptr noundef nonnull align 8 dereferenceable(16) %ref.tmp) #20
  call void @llvm.lifetime.end.p0(i64 16, ptr %ref.tmp) #20
  call void @llvm.lifetime.end.p0(i64 8, ptr %compound) #20
  ret void

lpad:                                             ; preds = %if.end
  %8 = landingpad { ptr, i32 }
          cleanup
  %9 = extractvalue { ptr, i32 } %8, 0
  store ptr %9, ptr %exn.slot, align 8
  %10 = extractvalue { ptr, i32 } %8, 1
  store i32 %10, ptr %ehselector.slot, align 4
  call void @_ZN8QuantLib10DayCounterD2Ev(ptr noundef nonnull align 8 dereferenceable(16) %ref.tmp) #20
  call void @llvm.lifetime.end.p0(i64 16, ptr %ref.tmp) #20
  call void @llvm.lifetime.end.p0(i64 8, ptr %compound) #20
  br label %eh.resume

eh.resume:                                        ; preds = %lpad
  %exn = load ptr, ptr %exn.slot, align 8
  %sel = load i32, ptr %ehselector.slot, align 4
  %lpad.val = insertvalue { ptr, i32 } poison, ptr %exn, 0
  %lpad.val2 = insertvalue { ptr, i32 } %lpad.val, i32 %sel, 1
  resume { ptr, i32 } %lpad.val2
}