; Function Attrs: mustprogress uwtable
define void @_ZNK8QuantLib18YieldTermStructure8zeroRateEdNS_11CompoundingENS_9FrequencyEb(ptr dead_on_unwind noalias writable sret(%"class.QuantLib::InterestRate") align 8 %agg.result, ptr noundef nonnull align 8 dereferenceable(152) %this, double noundef %t, i32 noundef %comp, i32 noundef %freq, i1 noundef zeroext %extrapolate) local_unnamed_addr #5 align 2 personality ptr @__gxx_personality_v0 {
entry:
  %ref.tmp = alloca %"class.QuantLib::DayCounter", align 8
  %cmp = fcmp oeq double %t, 0.000000e+00
  %t.addr.0 = select i1 %cmp, double 1.000000e-04, double %t
  %call = tail call noundef double @_ZNK8QuantLib18YieldTermStructure8discountEdb(ptr noundef nonnull align 8 dereferenceable(152) %this, double noundef %t.addr.0, i1 noundef zeroext %extrapolate)
  %div = fdiv double 1.000000e+00, %call
  call void @llvm.lifetime.start.p0(i64 16, ptr nonnull %ref.tmp) #25
  %vtable = load ptr, ptr %this, align 8, !tbaa !10
  %vfn = getelementptr inbounds i8, ptr %vtable, i64 16
  %0 = load ptr, ptr %vfn, align 8
  call void %0(ptr dead_on_unwind nonnull writable sret(%"class.QuantLib::DayCounter") align 8 %ref.tmp, ptr noundef nonnull align 8 dereferenceable(64) %this)
  invoke void @_ZN8QuantLib12InterestRate11impliedRateEdRKNS_10DayCounterENS_11CompoundingENS_9FrequencyEd(ptr dead_on_unwind writable sret(%"class.QuantLib::InterestRate") align 8 %agg.result, double noundef %div, ptr noundef nonnull align 8 dereferenceable(16) %ref.tmp, i32 noundef %comp, i32 noundef %freq, double noundef %t.addr.0)
          to label %invoke.cont unwind label %lpad

invoke.cont:                                      ; preds = %entry
  %pn.i.i = getelementptr inbounds nuw i8, ptr %ref.tmp, i64 8
  %1 = load ptr, ptr %pn.i.i, align 8, !tbaa !9
  %cmp.not.i.i.i = icmp eq ptr %1, null
  br i1 %cmp.not.i.i.i, label %_ZN8QuantLib10DayCounterD2Ev.exit, label %if.then.i.i.i

if.then.i.i.i:                                    ; preds = %invoke.cont
  %use_count_.i.i.i.i = getelementptr inbounds nuw i8, ptr %1, i64 8
  %2 = atomicrmw sub ptr %use_count_.i.i.i.i, i32 1 acq_rel, align 4
  %cmp.i.i.i.i = icmp eq i32 %2, 1
  br i1 %cmp.i.i.i.i, label %if.then.i.i.i.i, label %_ZN8QuantLib10DayCounterD2Ev.exit

if.then.i.i.i.i:                                  ; preds = %if.then.i.i.i
  %vtable.i.i.i.i = load ptr, ptr %1, align 8, !tbaa !10
  %vfn.i.i.i.i = getelementptr inbounds i8, ptr %vtable.i.i.i.i, i64 16
  %3 = load ptr, ptr %vfn.i.i.i.i, align 8
  invoke void %3(ptr noundef nonnull align 8 dereferenceable(16) %1)
          to label %.noexc.i.i.i unwind label %terminate.lpad.i.i.i

.noexc.i.i.i:                                     ; preds = %if.then.i.i.i.i
  %weak_count_.i.i.i.i.i = getelementptr inbounds nuw i8, ptr %1, i64 12
  %4 = atomicrmw sub ptr %weak_count_.i.i.i.i.i, i32 1 acq_rel, align 4
  %cmp.i.i.i.i.i = icmp eq i32 %4, 1
  br i1 %cmp.i.i.i.i.i, label %if.then.i.i.i.i.i, label %_ZN8QuantLib10DayCounterD2Ev.exit

if.then.i.i.i.i.i:                                ; preds = %.noexc.i.i.i
  %vtable.i.i.i.i.i = load ptr, ptr %1, align 8, !tbaa !10
  %vfn.i.i.i.i.i = getelementptr inbounds i8, ptr %vtable.i.i.i.i.i, i64 24
  %5 = load ptr, ptr %vfn.i.i.i.i.i, align 8
  invoke void %5(ptr noundef nonnull align 8 dereferenceable(16) %1)
          to label %_ZN8QuantLib10DayCounterD2Ev.exit unwind label %terminate.lpad.i.i.i

terminate.lpad.i.i.i:                             ; preds = %if.then.i.i.i.i.i, %if.then.i.i.i.i
  %6 = landingpad { ptr, i32 }
          catch ptr null
  %7 = extractvalue { ptr, i32 } %6, 0
  call void @__clang_call_terminate(ptr %7) #26
  unreachable

_ZN8QuantLib10DayCounterD2Ev.exit:                ; preds = %invoke.cont, %if.then.i.i.i, %.noexc.i.i.i, %if.then.i.i.i.i.i
  call void @llvm.lifetime.end.p0(i64 16, ptr nonnull %ref.tmp) #25
  ret void

lpad:                                             ; preds = %entry
  %8 = landingpad { ptr, i32 }
          cleanup
  call void @_ZN8QuantLib10DayCounterD2Ev(ptr noundef nonnull align 8 dereferenceable(16) %ref.tmp) #25
  call void @llvm.lifetime.end.p0(i64 16, ptr nonnull %ref.tmp) #25
  resume { ptr, i32 } %8
}